target datalayout = "e-m:e-p270:32:32-p271:32:32-p272:64:64-i64:64-i128:128-f80:128-n8:16:32:64-S128"
target triple = "x86_64-pc-linux-gnu"

%struct._lv_bar_t = type { %struct._lv_obj_t, i32, i32, i32, i32, %struct.lv_area_t, i8, %struct._lv_bar_anim_t, %struct._lv_bar_anim_t, i8 }
%struct._lv_obj_t = type { ptr, ptr, ptr, ptr, ptr, %struct.lv_area_t, i32, i16, i16 }
%struct.lv_area_t = type { i32, i32, i32, i32 }
%struct._lv_bar_anim_t = type { ptr, i32, i32, i32 }

; Function Attrs: nounwind uwtable
define void @lv_bar_set_value(ptr noundef %0, i32 noundef %1, i32 noundef %2) #0 {
  %4 = alloca ptr, align 8
  %5 = alloca i32, align 4
  %6 = alloca i32, align 4
  %7 = alloca ptr, align 8
  %8 = alloca i32, align 4
  store ptr %0, ptr %4, align 8, !tbaa !3
  store i32 %1, ptr %5, align 4, !tbaa !23
  store i32 %2, ptr %6, align 4, !tbaa !23
  br label %9

9:                                                ; preds = %3
  br label %10

10:                                               ; preds = %9
  call void @llvm.lifetime.start.p0(i64 8, ptr %7) #5
  %11 = load ptr, ptr %4, align 8, !tbaa !3
  store ptr %11, ptr %7, align 8, !tbaa !3
  %12 = load ptr, ptr %7, align 8, !tbaa !3
  %13 = getelementptr inbounds nuw %struct._lv_bar_t, ptr %12, i32 0, i32 1
  %14 = load i32, ptr %13, align 8, !tbaa !17
  %15 = load i32, ptr %5, align 4, !tbaa !23
  %16 = icmp eq i32 %14, %15
  br i1 %16, label %17, label %18

17:                                               ; preds = %10
  store i32 1, ptr %8, align 4
  br label %83

18:                                               ; preds = %10
  %19 = load ptr, ptr %7, align 8, !tbaa !3
  %20 = getelementptr inbounds nuw %struct._lv_bar_t, ptr %19, i32 0, i32 2
  %21 = load i32, ptr %20, align 4, !tbaa !7
  %22 = load i32, ptr %5, align 4, !tbaa !23
  %23 = load ptr, ptr %7, align 8, !tbaa !3
  %24 = getelementptr inbounds nuw %struct._lv_bar_t, ptr %23, i32 0, i32 3
  %25 = load i32, ptr %24, align 8, !tbaa !15
  %26 = icmp slt i32 %22, %25
  br i1 %26, label %27, label %29

27:                                               ; preds = %18
  %28 = load i32, ptr %5, align 4, !tbaa !23
  br label %33

29:                                               ; preds = %18
  %30 = load ptr, ptr %7, align 8, !tbaa !3
  %31 = getelementptr inbounds nuw %struct._lv_bar_t, ptr %30, i32 0, i32 3
  %32 = load i32, ptr %31, align 8, !tbaa !15
  br label %33

33:                                               ; preds = %29, %27
  %34 = phi i32 [ %28, %27 ], [ %32, %29 ]
  %35 = icmp sgt i32 %21, %34
  br i1 %35, label %36, label %40

36:                                               ; preds = %33
  %37 = load ptr, ptr %7, align 8, !tbaa !3
  %38 = getelementptr inbounds nuw %struct._lv_bar_t, ptr %37, i32 0, i32 2
  %39 = load i32, ptr %38, align 4, !tbaa !7
  br label %54

40:                                               ; preds = %33
  %41 = load i32, ptr %5, align 4, !tbaa !23
  %42 = load ptr, ptr %7, align 8, !tbaa !3
  %43 = getelementptr inbounds nuw %struct._lv_bar_t, ptr %42, i32 0, i32 3
  %44 = load i32, ptr %43, align 8, !tbaa !15
  %45 = icmp slt i32 %41, %44
  br i1 %45, label %46, label %48

46:                                               ; preds = %40
  %47 = load i32, ptr %5, align 4, !tbaa !23
  br label %52

48:                                               ; preds = %40
  %49 = load ptr, ptr %7, align 8, !tbaa !3
  %50 = getelementptr inbounds nuw %struct._lv_bar_t, ptr %49, i32 0, i32 3
  %51 = load i32, ptr %50, align 8, !tbaa !15
  br label %52

52:                                               ; preds = %48, %46
  %53 = phi i32 [ %47, %46 ], [ %51, %48 ]
  br label %54

54:                                               ; preds = %52, %36
  %55 = phi i32 [ %39, %36 ], [ %53, %52 ]
  store i32 %55, ptr %5, align 4, !tbaa !23
  %56 = load i32, ptr %5, align 4, !tbaa !23
  %57 = load ptr, ptr %7, align 8, !tbaa !3
  %58 = getelementptr inbounds nuw %struct._lv_bar_t, ptr %57, i32 0, i32 4
  %59 = load i32, ptr %58, align 4, !tbaa !16
  %60 = icmp slt i32 %56, %59
  br i1 %60, label %61, label %65

61:                                               ; preds = %54
  %62 = load ptr, ptr %7, align 8, !tbaa !3
  %63 = getelementptr inbounds nuw %struct._lv_bar_t, ptr %62, i32 0, i32 4
  %64 = load i32, ptr %63, align 4, !tbaa !16
  br label %67

65:                                               ; preds = %54
  %66 = load i32, ptr %5, align 4, !tbaa !23
  br label %67

67:                                               ; preds = %65, %61
  %68 = phi i32 [ %64, %61 ], [ %66, %65 ]
  store i32 %68, ptr %5, align 4, !tbaa !23
  %69 = load ptr, ptr %7, align 8, !tbaa !3
  %70 = getelementptr inbounds nuw %struct._lv_bar_t, ptr %69, i32 0, i32 1
  %71 = load i32, ptr %70, align 8, !tbaa !17
  %72 = load i32, ptr %5, align 4, !tbaa !23
  %73 = icmp eq i32 %71, %72
  br i1 %73, label %74, label %75

74:                                               ; preds = %67
  store i32 1, ptr %8, align 4
  br label %83

75:                                               ; preds = %67
  %76 = load ptr, ptr %4, align 8, !tbaa !3
  %77 = load i32, ptr %5, align 4, !tbaa !23
  %78 = load ptr, ptr %7, align 8, !tbaa !3
  %79 = getelementptr inbounds nuw %struct._lv_bar_t, ptr %78, i32 0, i32 1
  %80 = load ptr, ptr %7, align 8, !tbaa !3
  %81 = getelementptr inbounds nuw %struct._lv_bar_t, ptr %80, i32 0, i32 7
  %82 = load i32, ptr %6, align 4, !tbaa !23
  call void @lv_bar_set_value_with_anim(ptr noundef %76, i32 noundef %77, ptr noundef %79, ptr noundef %81, i32 noundef %82)
  store i32 0, ptr %8, align 4
  br label %83

83:                                               ; preds = %75, %74, %17
  call void @llvm.lifetime.end.p0(i64 8, ptr %7) #5
  %84 = load i32, ptr %8, align 4
  switch i32 %84, label %86 [
    i32 0, label %85
    i32 1, label %85
  ]

85:                                               ; preds = %83, %83
  ret void

86:                                               ; preds = %83
  unreachable
}