; Function Attrs: nounwind uwtable
define void @lv_bar_set_value(ptr noundef %0, i32 noundef %1, i32 noundef %2) local_unnamed_addr #0 {
  %4 = getelementptr inbounds nuw i8, ptr %0, i64 64
  %5 = load i32, ptr %4, align 8, !tbaa !15
  %6 = icmp eq i32 %5, %1
  br i1 %6, label %17, label %7

7:                                                ; preds = %3
  %8 = getelementptr inbounds nuw i8, ptr %0, i64 68
  %9 = load i32, ptr %8, align 4, !tbaa !3
  %10 = getelementptr inbounds nuw i8, ptr %0, i64 72
  %11 = load i32, ptr %10, align 8, !tbaa !14
  %. = tail call i32 @llvm.smin.i32(i32 %1, i32 %11)
  %spec.select = tail call i32 @llvm.smax.i32(i32 %9, i32 %.)
  %12 = getelementptr inbounds nuw i8, ptr %0, i64 76
  %13 = load i32, ptr %12, align 4, !tbaa !21
  %.29 = tail call i32 @llvm.smax.i32(i32 %spec.select, i32 %13)
  %14 = icmp eq i32 %5, %.29
  br i1 %14, label %17, label %15

15:                                               ; preds = %7
  %16 = getelementptr inbounds nuw i8, ptr %0, i64 104
  tail call fastcc void @lv_bar_set_value_with_anim(ptr noundef nonnull %0, i32 noundef %.29, ptr noundef nonnull %4, ptr noundef nonnull %16, i32 noundef %2)
  br label %17

17:                                               ; preds = %7, %3, %15
  ret void
}